; Function Attrs: nounwind uwtable
define dso_local zeroext i1 @resp_start(ptr noundef captures(none) %0) local_unnamed_addr #1 {
  %2 = getelementptr i8, ptr %0, i64 400
  %.val = load ptr, ptr %2, align 8, !tbaa !30
  %3 = tail call fastcc ptr @resp_allocate(ptr %.val)
  %.not = icmp ne ptr %3, null
  %4 = load ptr, ptr %2, align 8, !tbaa !30
  %5 = getelementptr inbounds nuw i8, ptr %4, i64 360
  %6 = tail call i32 @pthread_mutex_lock(ptr noundef nonnull %5) #34
  %7 = load ptr, ptr %2, align 8, !tbaa !30
  %8 = getelementptr inbounds nuw i8, ptr %7, i64 360
  br i1 %.not, label %14, label %9

9:                                                ; preds = %1
  %10 = getelementptr inbounds nuw i8, ptr %7, i64 544
  %11 = load i64, ptr %10, align 8, !tbaa !170
  %12 = add i64 %11, 1
  store i64 %12, ptr %10, align 8, !tbaa !170
  %13 = tail call i32 @pthread_mutex_unlock(ptr noundef nonnull %8) #34
  br label %42

14:                                               ; preds = %1
  %15 = getelementptr inbounds nuw i8, ptr %7, i64 552
  %16 = load i64, ptr %15, align 8, !tbaa !169
  %17 = add i64 %16, 1
  store i64 %17, ptr %15, align 8, !tbaa !169
  %18 = tail call i32 @pthread_mutex_unlock(ptr noundef nonnull %8) #34
  %19 = getelementptr inbounds nuw i8, ptr %0, i64 216
  %20 = load ptr, ptr %19, align 8, !tbaa !80
  %.not28 = icmp eq ptr %20, null
  br i1 %.not28, label %21, label %22

21:                                               ; preds = %14
  store ptr %3, ptr %19, align 8, !tbaa !80
  br label %22

22:                                               ; preds = %21, %14
  %23 = getelementptr inbounds nuw i8, ptr %0, i64 208
  %24 = load ptr, ptr %23, align 8, !tbaa !118
  %.not29 = icmp eq ptr %24, null
  br i1 %.not29, label %27, label %25

25:                                               ; preds = %22
  %26 = getelementptr inbounds nuw i8, ptr %24, i64 8
  store ptr %3, ptr %26, align 8, !tbaa !110
  br label %27

27:                                               ; preds = %22, %25
  store ptr %3, ptr %23, align 8, !tbaa !118
  %28 = getelementptr inbounds nuw i8, ptr %0, i64 264
  %29 = load i32, ptr %28, align 8, !tbaa !65
  %30 = icmp eq i32 %29, 2
  br i1 %30, label %31, label %42

31:                                               ; preds = %27
  %32 = getelementptr inbounds nuw i8, ptr %0, i64 272
  %33 = load i32, ptr %32, align 8, !tbaa !77
  %34 = trunc i32 %33 to i16
  %35 = getelementptr inbounds nuw i8, ptr %3, i64 122
  store i16 %34, ptr %35, align 2, !tbaa !127
  %36 = getelementptr inbounds nuw i8, ptr %3, i64 128
  %37 = getelementptr inbounds nuw i8, ptr %0, i64 276
  tail call void @llvm.memcpy.p0.p0.i64(ptr noundef nonnull align 8 dereferenceable(28) %36, ptr noundef nonnull align 4 dereferenceable(28) %37, i64 28, i1 false), !tbaa.struct !171
  %38 = getelementptr inbounds nuw i8, ptr %0, i64 304
  %39 = load i32, ptr %38, align 8, !tbaa !75
  %40 = load ptr, ptr %23, align 8, !tbaa !118
  %41 = getelementptr inbounds nuw i8, ptr %40, i64 156
  store i32 %39, ptr %41, align 4, !tbaa !120
  br label %42

42:                                               ; preds = %27, %31, %9
  ret i1 %.not
}